target datalayout = "e-m:e-p270:32:32-p271:32:32-p272:64:64-i64:64-i128:128-f80:128-n8:16:32:64-S128"
target triple = "x86_64-pc-linux-gnu"

; Function Attrs: mustprogress uwtable
define i32 @fastlz_compress_level(i32 noundef %0, ptr noundef %1, i32 noundef %2, ptr noundef %3) #0 {
  %5 = alloca i32, align 4
  %6 = alloca i32, align 4
  %7 = alloca ptr, align 8
  %8 = alloca i32, align 4
  %9 = alloca ptr, align 8
  store i32 %0, ptr %6, align 4, !tbaa !10
  store ptr %1, ptr %7, align 8, !tbaa !6
  store i32 %2, ptr %8, align 4, !tbaa !10
  store ptr %3, ptr %9, align 8, !tbaa !6
  %10 = load i32, ptr %6, align 4, !tbaa !10
  %11 = icmp eq i32 %10, 1
  br i1 %11, label %12, label %17

12:                                               ; preds = %4
  %13 = load ptr, ptr %7, align 8, !tbaa !6
  %14 = load i32, ptr %8, align 4, !tbaa !10
  %15 = load ptr, ptr %9, align 8, !tbaa !6
  %16 = call noundef i32 @_ZL16fastlz1_compressPKviPv(ptr noundef %13, i32 noundef %14, ptr noundef %15)
  store i32 %16, ptr %5, align 4
  br label %26

17:                                               ; preds = %4
  %18 = load i32, ptr %6, align 4, !tbaa !10
  %19 = icmp eq i32 %18, 2
  br i1 %19, label %20, label %25

20:                                               ; preds = %17
  %21 = load ptr, ptr %7, align 8, !tbaa !6
  %22 = load i32, ptr %8, align 4, !tbaa !10
  %23 = load ptr, ptr %9, align 8, !tbaa !6
  %24 = call noundef i32 @_ZL16fastlz2_compressPKviPv(ptr noundef %21, i32 noundef %22, ptr noundef %23)
  store i32 %24, ptr %5, align 4
  br label %26

25:                                               ; preds = %17
  store i32 0, ptr %5, align 4
  br label %26

26:                                               ; preds = %25, %20, %12
  %27 = load i32, ptr %5, align 4
  ret i32 %27
}