; Function Attrs: mustprogress nofree norecurse nosync nounwind memory(readwrite, inaccessiblemem: none) uwtable
define noundef i32 @fastlz_compress_level(i32 noundef %0, ptr noundef %1, i32 noundef %2, ptr noundef %3) local_unnamed_addr #0 {
  switch i32 %0, label %9 [
    i32 1, label %5
    i32 2, label %7
  ]

5:                                                ; preds = %4
  %6 = tail call fastcc noundef i32 @_ZL16fastlz1_compressPKviPv(ptr noundef %1, i32 noundef %2, ptr noundef %3)
  br label %9

7:                                                ; preds = %4
  %8 = tail call fastcc noundef i32 @_ZL16fastlz2_compressPKviPv(ptr noundef %1, i32 noundef %2, ptr noundef %3)
  br label %9

9:                                                ; preds = %4, %7, %5
  %.0 = phi i32 [ %6, %5 ], [ %8, %7 ], [ 0, %4 ]
  ret i32 %.0
}